; Function Attrs: nofree norecurse nosync nounwind memory(argmem: readwrite) uwtable
define internal void @AddVector_C(ptr nocapture noundef readonly %0, ptr nocapture noundef readonly %1, ptr nocapture noundef writeonly %2, i32 noundef %3) #2 {
  %5 = icmp sgt i32 %3, 0
  br i1 %5, label %.lr.ph.preheader, label %._crit_edge

.lr.ph.preheader:                                 ; preds = %4
  %wide.trip.count = zext nneg i32 %3 to i64
  br label %.lr.ph

.lr.ph:                                           ; preds = %.lr.ph.preheader, %.lr.ph
  %indvars.iv = phi i64 [ 0, %.lr.ph.preheader ], [ %indvars.iv.next, %.lr.ph ]
  %6 = getelementptr inbounds i32, ptr %0, i64 %indvars.iv
  %7 = load i32, ptr %6, align 4
  %8 = getelementptr inbounds i32, ptr %1, i64 %indvars.iv
  %9 = load i32, ptr %8, align 4
  %10 = add i32 %9, %7
  %11 = getelementptr inbounds i32, ptr %2, i64 %indvars.iv
  store i32 %10, ptr %11, align 4
  %indvars.iv.next = add nuw nsw i64 %indvars.iv, 1
  %exitcond.not = icmp eq i64 %indvars.iv.next, %wide.trip.count
  br i1 %exitcond.not, label %._crit_edge, label %.lr.ph, !llvm.loop !21

._crit_edge:                                      ; preds = %.lr.ph, %4
  ret void
}